; Function Attrs: mustprogress uwtable
define void @_ZN6htif_t16register_devicesEv(ptr noundef nonnull align 8 dereferenceable(712) %0) local_unnamed_addr #3 align 2 {
  %2 = getelementptr inbounds nuw i8, ptr %0, i64 192
  %3 = getelementptr inbounds nuw i8, ptr %0, i64 280
  tail call void @_ZN13device_list_t15register_deviceEP8device_t(ptr noundef nonnull align 8 dereferenceable(88) %2, ptr noundef nonnull %3)
  %4 = getelementptr inbounds nuw i8, ptr %0, i64 456
  tail call void @_ZN13device_list_t15register_deviceEP8device_t(ptr noundef nonnull align 8 dereferenceable(88) %2, ptr noundef nonnull %4)
  %5 = getelementptr inbounds nuw i8, ptr %0, i64 592
  %6 = load ptr, ptr %5, align 8, !tbaa !102
  %7 = getelementptr inbounds nuw i8, ptr %0, i64 600
  %8 = load ptr, ptr %7, align 8, !tbaa !102
  %9 = icmp eq ptr %6, %8
  br i1 %9, label %._crit_edge, label %.lr.ph

._crit_edge:                                      ; preds = %.lr.ph, %1
  ret void

.lr.ph:                                           ; preds = %1, %.lr.ph
  %.sroa.04.07 = phi ptr [ %11, %.lr.ph ], [ %6, %1 ]
  %10 = load ptr, ptr %.sroa.04.07, align 8, !tbaa !103
  tail call void @_ZN13device_list_t15register_deviceEP8device_t(ptr noundef nonnull align 8 dereferenceable(88) %2, ptr noundef %10)
  %11 = getelementptr inbounds nuw i8, ptr %.sroa.04.07, i64 8
  %12 = icmp eq ptr %11, %8
  br i1 %12, label %._crit_edge, label %.lr.ph
}